target datalayout = "e-m:e-p270:32:32-p271:32:32-p272:64:64-i64:64-i128:128-f80:128-n8:16:32:64-S128"
target triple = "x86_64-pc-linux-gnu"

@proto_register_vjc.ett = internal global [2 x ptr] [ptr @ett_vjc, ptr @ett_vjc_change_mask], align 16
@.str.68 = private unnamed_addr constant [29 x i8] c"Van Jacobson PPP compression\00", align 1
@.str.69 = private unnamed_addr constant [4 x i8] c"VJC\00", align 1
@.str.70 = private unnamed_addr constant [4 x i8] c"vjc\00", align 1
@proto_vjc = internal global i32 0, align 4
@.str.71 = private unnamed_addr constant [15 x i8] c"vjc_compressed\00", align 1
@vjcc_handle = internal global ptr null, align 8
@.str.72 = private unnamed_addr constant [17 x i8] c"vjc_uncompressed\00", align 1
@vjcu_handle = internal global ptr null, align 8
@vjc_conn_id_lookup = internal global ptr null, align 8
@vjc_conv_table = internal global ptr null, align 8

; Function Attrs: null_pointer_is_valid sspstrong uwtable
define hidden void @proto_register_vjc() #0 {
  %1 = alloca ptr, align 8
  call void @llvm.lifetime.start.p0(i64 8, ptr %1) #9
  %2 = call i32 @proto_register_protocol(ptr noundef @.str.68, ptr noundef @.str.69, ptr noundef @.str.70)
  store i32 %2, ptr @proto_vjc, align 4
  %3 = load i32, ptr @proto_vjc, align 4
  call void @proto_register_field_array(i32 noundef %3, ptr noundef @proto_register_vjc.hf, i32 noundef 18)
  call void @proto_register_subtree_array(ptr noundef @proto_register_vjc.ett, i32 noundef 2)
  %4 = load i32, ptr @proto_vjc, align 4
  %5 = call ptr @expert_register_protocol(i32 noundef %4)
  store ptr %5, ptr %1, align 8
  %6 = load ptr, ptr %1, align 8
  call void @expert_register_field_array(ptr noundef %6, ptr noundef @proto_register_vjc.ei, i32 noundef 9)
  %7 = load i32, ptr @proto_vjc, align 4
  %8 = call ptr @register_dissector(ptr noundef @.str.71, ptr noundef @dissect_vjc_comp, i32 noundef %7)
  store ptr %8, ptr @vjcc_handle, align 8
  %9 = load i32, ptr @proto_vjc, align 4
  %10 = call ptr @register_dissector(ptr noundef @.str.72, ptr noundef @dissect_vjc_uncomp, i32 noundef %9)
  store ptr %10, ptr @vjcu_handle, align 8
  %11 = call ptr @wmem_epan_scope()
  %12 = call ptr @wmem_file_scope()
  %13 = call noalias ptr @wmem_map_new_autoreset(ptr noundef %11, ptr noundef %12, ptr noundef @g_direct_hash, ptr noundef @g_direct_equal)
  store ptr %13, ptr @vjc_conn_id_lookup, align 8
  %14 = call ptr @wmem_epan_scope()
  %15 = call ptr @wmem_file_scope()
  %16 = call noalias ptr @wmem_multimap_new_autoreset(ptr noundef %14, ptr noundef %15, ptr noundef @g_direct_hash, ptr noundef @g_direct_equal)
  store ptr %16, ptr @vjc_conv_table, align 8
  call void @register_init_routine(ptr noundef @vjc_init_protocol)
  call void @register_cleanup_routine(ptr noundef @vjc_cleanup_protocol)
  call void @llvm.lifetime.end.p0(i64 8, ptr %1) #9
  ret void
}