; Function Attrs: null_pointer_is_valid sspstrong uwtable
define hidden void @proto_register_vjc() local_unnamed_addr #0 {
  %1 = tail call i32 @proto_register_protocol(ptr noundef nonnull @.str.68, ptr noundef nonnull @.str.69, ptr noundef nonnull @.str.70)
  store i32 %1, ptr @proto_vjc, align 4
  tail call void @proto_register_field_array(i32 noundef %1, ptr noundef nonnull @proto_register_vjc.hf, i32 noundef 18)
  tail call void @proto_register_subtree_array(ptr noundef nonnull @proto_register_vjc.ett, i32 noundef 2)
  %2 = load i32, ptr @proto_vjc, align 4
  %3 = tail call ptr @expert_register_protocol(i32 noundef %2)
  tail call void @expert_register_field_array(ptr noundef %3, ptr noundef nonnull @proto_register_vjc.ei, i32 noundef 9)
  %4 = load i32, ptr @proto_vjc, align 4
  %5 = tail call ptr @register_dissector(ptr noundef nonnull @.str.71, ptr noundef nonnull @dissect_vjc_comp, i32 noundef %4)
  store ptr %5, ptr @vjcc_handle, align 8
  %6 = load i32, ptr @proto_vjc, align 4
  %7 = tail call ptr @register_dissector(ptr noundef nonnull @.str.72, ptr noundef nonnull @dissect_vjc_uncomp, i32 noundef %6)
  store ptr %7, ptr @vjcu_handle, align 8
  %8 = tail call ptr @wmem_epan_scope()
  %9 = tail call ptr @wmem_file_scope()
  %10 = tail call noalias ptr @wmem_map_new_autoreset(ptr noundef %8, ptr noundef %9, ptr noundef nonnull @g_direct_hash, ptr noundef nonnull @g_direct_equal)
  store ptr %10, ptr @vjc_conn_id_lookup, align 8
  %11 = tail call ptr @wmem_epan_scope()
  %12 = tail call ptr @wmem_file_scope()
  %13 = tail call noalias ptr @wmem_multimap_new_autoreset(ptr noundef %11, ptr noundef %12, ptr noundef nonnull @g_direct_hash, ptr noundef nonnull @g_direct_equal)
  store ptr %13, ptr @vjc_conv_table, align 8
  tail call void @register_init_routine(ptr noundef nonnull @vjc_init_protocol)
  tail call void @register_cleanup_routine(ptr noundef nonnull @vjc_cleanup_protocol)
  ret void
}